; Function Attrs: mustprogress uwtable
define noundef double @_ZNK8QuantLib7Vasicek1BEdd(ptr nocapture noundef nonnull readonly align 8 dereferenceable(128) %this, double noundef %t, double noundef %T) unnamed_addr #1 align 2 {
entry:
  %a_.i = getelementptr inbounds nuw i8, ptr %this, i64 96
  %0 = load ptr, ptr %a_.i, align 8, !tbaa !62
  %1 = load ptr, ptr %0, align 8, !tbaa !63
  %cmp.not.i.i.i = icmp eq ptr %1, null
  br i1 %cmp.not.i.i.i, label %cond.false.i.i.i, label %_ZNK8QuantLib7Vasicek1aEv.exit, !prof !72

cond.false.i.i.i:                                 ; preds = %entry
  tail call void @_ZN5boost16assertion_failedEPKcS1_S1_l(ptr noundef nonnull @.str.9, ptr noundef nonnull @__PRETTY_FUNCTION__._ZNK5boost10shared_ptrIN8QuantLib9Parameter4ImplEEptEv, ptr noundef nonnull @.str.10, i64 noundef 784)
  %.pre.i.i.i = load ptr, ptr %0, align 8, !tbaa !63
  br label %_ZNK8QuantLib7Vasicek1aEv.exit

_ZNK8QuantLib7Vasicek1aEv.exit:                   ; preds = %entry, %cond.false.i.i.i
  %2 = phi ptr [ %1, %entry ], [ %.pre.i.i.i, %cond.false.i.i.i ]
  %params_.i.i = getelementptr inbounds nuw i8, ptr %0, i64 16
  %vtable.i.i = load ptr, ptr %2, align 8, !tbaa !14
  %vfn.i.i = getelementptr inbounds i8, ptr %vtable.i.i, i64 16
  %3 = load ptr, ptr %vfn.i.i, align 8
  %call2.i.i = tail call noundef double %3(ptr noundef nonnull align 8 dereferenceable(8) %2, ptr noundef nonnull align 8 dereferenceable(16) %params_.i.i, double noundef 0.000000e+00)
  %cmp = fcmp olt double %call2.i.i, 0x3E50000000000000
  br i1 %cmp, label %if.then, label %if.else

if.then:                                          ; preds = %_ZNK8QuantLib7Vasicek1aEv.exit
  %sub = fsub double %T, %t
  br label %cleanup

if.else:                                          ; preds = %_ZNK8QuantLib7Vasicek1aEv.exit
  %fneg = fneg double %call2.i.i
  %sub4 = fsub double %T, %t
  %mul = fmul double %sub4, %fneg
  %call5 = tail call double @exp(double noundef %mul) #26, !tbaa !73
  %sub6 = fsub double 1.000000e+00, %call5
  %div = fdiv double %sub6, %call2.i.i
  br label %cleanup

cleanup:                                          ; preds = %if.else, %if.then
  %retval.0 = phi double [ %sub, %if.then ], [ %div, %if.else ]
  ret double %retval.0
}